; Function Attrs: mustprogress uwtable
define void @_ZN3g2o15SparseOptimizer25setComputeBatchStatisticsEb(ptr nocapture noundef nonnull align 8 dereferenceable(409) %0, i1 noundef zeroext %1) local_unnamed_addr #3 align 2 personality ptr @__gxx_personality_v0 {
  %3 = getelementptr inbounds nuw i8, ptr %0, i64 408
  %4 = load i8, ptr %3, align 8
  %5 = trunc i8 %4 to i1
  %.not = xor i1 %5, true
  %brmerge = or i1 %1, %.not
  br i1 %brmerge, label %_ZNSt6vectorIN3g2o18G2OBatchStatisticsESaIS1_EE5clearEv.exit, label %6

6:                                                ; preds = %2
  tail call void @_ZN3g2o18G2OBatchStatistics14setGlobalStatsEPS0_(ptr noundef null)
  %7 = getelementptr inbounds nuw i8, ptr %0, i64 384
  %8 = load ptr, ptr %7, align 8
  %9 = getelementptr inbounds i8, ptr %0, i64 392
  %10 = load ptr, ptr %9, align 8
  %.not.i.i = icmp eq ptr %10, %8
  br i1 %.not.i.i, label %_ZNSt6vectorIN3g2o18G2OBatchStatisticsESaIS1_EE5clearEv.exit, label %11

11:                                               ; preds = %6
  store ptr %8, ptr %9, align 8
  br label %_ZNSt6vectorIN3g2o18G2OBatchStatisticsESaIS1_EE5clearEv.exit

_ZNSt6vectorIN3g2o18G2OBatchStatisticsESaIS1_EE5clearEv.exit: ; preds = %11, %6, %2
  %12 = zext i1 %1 to i8
  store i8 %12, ptr %3, align 8
  ret void
}